target datalayout = "e-m:e-p270:32:32-p271:32:32-p272:64:64-i64:64-i128:128-f80:128-n8:16:32:64-S128"
target triple = "x86_64-pc-linux-gnu"

%struct.DHT = type { i32, i32, ptr, [3 x i16], [3 x float], ptr, ptr }
%class.LibRaw = type { ptr, %struct.libraw_data_t, ptr, %struct.libraw_internal_data_t, [2048 x %struct.decode], ptr, ptr, [10 x %struct.tiff_ifd_t], %class.libraw_memmgr, %struct.libraw_callbacks_t, { i64, i64 }, { i64, i64 }, { i64, i64 }, ptr, ptr, ptr, i64, ptr, ptr, ptr, ptr }
%struct.libraw_data_t = type { ptr, %struct.libraw_image_sizes_t, %struct.libraw_iparams_t, %struct.libraw_lensinfo_t, %struct.libraw_makernotes_t, %struct.libraw_shootinginfo_t, %struct.libraw_output_params_t, %struct.libraw_raw_unpack_params_t, i32, i32, %struct.libraw_colordata_t, %struct.libraw_imgother_t, %struct.libraw_thumbnail_t, %struct.libraw_thumbnail_list_t, %struct.libraw_rawdata_t, ptr }
%struct.libraw_image_sizes_t = type { i16, i16, i16, i16, i16, i16, i16, i16, i32, double, i32, [8 x [4 x i32]], i16, [2 x %struct.libraw_raw_inset_crop_t] }
%struct.libraw_raw_inset_crop_t = type { i16, i16, i16, i16 }
%struct.libraw_iparams_t = type { [4 x i8], [64 x i8], [64 x i8], [64 x i8], [64 x i8], [64 x i8], i32, i32, i32, i32, i32, i32, [6 x [6 x i8]], [6 x [6 x i8]], [5 x i8], i32, ptr }
%struct.libraw_lensinfo_t = type { float, float, float, float, float, [128 x i8], [128 x i8], [128 x i8], [128 x i8], i16, %struct.libraw_nikonlens_t, %struct.libraw_dnglens_t, %struct.libraw_makernotes_lens_t }
%struct.libraw_nikonlens_t = type { float, i8, i8, i8, i8 }
%struct.libraw_dnglens_t = type { float, float, float, float }
%struct.libraw_makernotes_lens_t = type { i64, [128 x i8], i16, i16, i64, i16, i16, [64 x i8], i16, [16 x i8], [16 x i8], float, float, float, float, float, float, float, float, float, float, float, float, float, float, float, i64, [128 x i8], i64, [128 x i8], i64, [128 x i8], i16, float }
%struct.libraw_makernotes_t = type { %struct.libraw_canon_makernotes_t, %struct.libraw_nikon_makernotes_t, %struct.libraw_hasselblad_makernotes_t, %struct.libraw_fuji_info_t, %struct.libraw_olympus_makernotes_t, %struct.libraw_sony_info_t, %struct.libraw_kodak_makernotes_t, %struct.libraw_panasonic_makernotes_t, %struct.libraw_pentax_makernotes_t, %struct.libraw_p1_makernotes_t, %struct.libraw_ricoh_makernotes_t, %struct.libraw_samsung_makernotes_t, %struct.libraw_metadata_common_t }
%struct.libraw_canon_makernotes_t = type { i32, i32, i32, i32, [4 x i32], i32, [4 x i32], i16, i16, i8, i16, i16, i16, i16, i16, i16, i16, i16, i16, i16, i16, i16, i16, i32, float, i16, i16, i16, i32, i16, i32, i32, i16, i32, %struct.libraw_area_t, %struct.libraw_area_t, %struct.libraw_area_t, %struct.libraw_area_t, %struct.libraw_area_t, [2 x i16] }
%struct.libraw_area_t = type { i16, i16, i16, i16 }
%struct.libraw_nikon_makernotes_t = type { double, i16, i16, [7 x i8], i8, i8, [13 x i8], [20 x i8], [4 x i8], [4 x i8], [4 x i8], i8, i8, i8, i8, i8, [2 x i8], i8, i8, i8, i8, i8, [4 x i8], [4 x i8], i8, i16, i32, i32, i32, i32, [4 x double], i8, i8, i8, i32, i32, i32, i8, [4 x i16], i16, %struct.libraw_sensor_highspeed_crop_t, i16, i16, i16, i32, [20 x i8], [20 x i8], i32, i16, double, double, double }
%struct.libraw_sensor_highspeed_crop_t = type { i16, i16, i16, i16 }
%struct.libraw_hasselblad_makernotes_t = type { i32, double, [8 x i8], [64 x i8], [64 x i8], i32, i32, i32, i32, [32 x i8], [64 x i8], i32, [2 x i32], [2 x i32], [4 x [3 x double]] }
%struct.libraw_fuji_info_t = type { float, i16, i16, i16, i16, i16, i16, i16, i16, [33 x i8], [33 x i8], float, i16, i16, [2 x i16], i16, i32, i32, i16, [3 x i16], i16, i16, i16, i16, i16, i32, i16, [13 x i8], [5 x i8], [5 x i8], i32, i16, i32, i16, [9 x i16], [32 x i32], i32, i32, i32, [2 x float], i32 }
%struct.libraw_olympus_makernotes_t = type { [6 x i8], i16, [2 x i32], [5 x i16], i16, [2 x i16], i16, i16, [64 x i32], [5 x double], i16, i8, [3 x i16], [3 x i32], i16, i16, i16, i16, double, [4 x i16], [2 x i32], i8, i32, i16, i16 }
%struct.libraw_sony_info_t = type { i16, i8, i8, i32, i8, i32, i8, i8, i16, [2 x i16], i8, i8, i16, [10 x i8], i8, i8, [4 x i16], i16, i8, i8, i8, i16, i32, i16, [2 x i16], i16, i16, i16, i16, i16, i16, i16, i32, float, i16, i32, i32, i16, [20 x i8], i32, i16, i32, i8, i8, i16, i16, i16, i16, i16, i16, i16, i16, i16, i32, i16, [16 x i8], float }
%struct.libraw_kodak_makernotes_t = type { i16, i16, i16, i16, i16, i16, [3 x [3 x float]], [3 x [3 x float]], [3 x [3 x float]], [3 x [3 x float]], [3 x [3 x float]], [3 x [3 x float]], i16, i16, i16, i16, float, float }
%struct.libraw_panasonic_makernotes_t = type { i16, i16, [8 x float], i32, float, [3 x i32], i16, i16, i32, i32 }
%struct.libraw_pentax_makernotes_t = type { [4 x i8], [2 x i16], [2 x i16], i16, i32, i32, i16, i16, i8, i8, i16 }
%struct.libraw_p1_makernotes_t = type { [64 x i8], [64 x i8], [256 x i8], [64 x i8] }
%struct.libraw_ricoh_makernotes_t = type { i16, [2 x i32], [2 x i32], i16, i32, i32, i32, i32, i16, i16, i16, i16, i16, i16, double, double }
%struct.libraw_samsung_makernotes_t = type { [4 x i32], [4 x i32], [2 x i32], [11 x i32], double, i32, [32 x i8] }
%struct.libraw_metadata_common_t = type { float, float, float, float, float, float, float, float, float, float, float, float, float, float, float, float, i16, [128 x i8], float, [4 x %struct.libraw_afinfo_item_t], i32 }
%struct.libraw_afinfo_item_t = type { i32, i16, i32, i32, ptr }
%struct.libraw_shootinginfo_t = type { i16, i16, i16, i16, i16, i16, i16, [64 x i8], [64 x i8] }
%struct.libraw_output_params_t = type { [4 x i32], [4 x i32], [4 x double], [6 x double], [4 x float], float, float, i32, i32, i32, i32, i32, i32, i32, ptr, ptr, ptr, ptr, i32, i32, i32, i32, i32, i32, [4 x i32], i32, i32, float, float, i32, i32, i32, i32, i32, i32, i32, i32, float, float, i32, i32 }
%struct.libraw_raw_unpack_params_t = type { i32, i32, i32, i32, i32, i32, i32, float, [5 x i8], ptr }
%struct.libraw_colordata_t = type { [65536 x i16], [4104 x i32], i32, i32, i32, [4 x i64], float, float, [8 x [8 x i16]], [4 x float], [4 x float], [3 x [4 x float]], [3 x [4 x float]], [3 x [4 x float]], [4 x [3 x float]], %struct.ph1_t, float, float, [64 x i8], [64 x i8], [64 x i8], [64 x i8], [17 x i8], [64 x i8], ptr, i32, [8 x i32], [2 x %struct.libraw_dng_color_t], %struct.libraw_dng_levels_t, [256 x [4 x i32]], [64 x [5 x float]], i32, [2 x %struct.libraw_P1_color_t], i32, i32 }
%struct.ph1_t = type { i32, i32, i32, i32, i32, i32, i32, i32, float }
%struct.libraw_dng_color_t = type { i32, i16, [4 x [4 x float]], [4 x [3 x float]], [3 x [4 x float]] }
%struct.libraw_dng_levels_t = type { i32, [4104 x i32], i32, [4104 x float], float, [4 x i32], [4 x i16], [4 x float], i32, [4 x float], [4 x float], float, float }
%struct.libraw_P1_color_t = type { [9 x float] }
%struct.libraw_imgother_t = type { float, float, float, float, i64, i32, [32 x i32], %struct.libraw_gps_info_t, [512 x i8], [64 x i8], [4 x float] }
%struct.libraw_gps_info_t = type { [3 x float], [3 x float], [3 x float], float, i8, i8, i8, i8, i8 }
%struct.libraw_thumbnail_t = type { i32, i16, i16, i32, i32, ptr }
%struct.libraw_thumbnail_list_t = type { i32, [8 x %struct.libraw_thumbnail_item_t] }
%struct.libraw_thumbnail_item_t = type { i32, i16, i16, i16, i32, i32, i64 }
%struct.libraw_rawdata_t = type { ptr, ptr, ptr, ptr, ptr, ptr, ptr, ptr, ptr, %struct.libraw_iparams_t, %struct.libraw_image_sizes_t, %struct.libraw_internal_output_params_t, %struct.libraw_colordata_t }
%struct.libraw_internal_output_params_t = type { i32, i32, i32, i16, i16 }
%struct.libraw_internal_data_t = type { %struct.internal_data_t, %struct.libraw_internal_output_params_t, %struct.output_data_t, %struct.identify_data_t, %struct.unpacker_data_t }
%struct.internal_data_t = type { ptr, ptr, i32, ptr, i64, i64, [4 x i32] }
%struct.output_data_t = type { ptr, ptr }
%struct.identify_data_t = type { i32, i64, i64, i32, i32, i32 }
%struct.unpacker_data_t = type { i16, [4 x i16], [3 x i16], i32, i64, i64, i64, i64, i64, i64, i32, i32, i32, i32, i32, i32, i32, i32, i32, i32, i32, i32, i32, i32, i32, i32, i32, i64, i32, i32, i32, i32, i32, i32, i32, i32, i32, %struct.pana8_tags_t, [16 x %struct.crx_data_header_t], i32, i32, i16, i16, i32, i32, i32, i32, i32, i32, i32, [20 x i32], i16 }
%struct.pana8_tags_t = type { [6 x i32], [6 x i16], i16, [4 x i16], [17 x i16], [17 x i16], [17 x i16], i16, i16, [5 x i64], [5 x i16], [5 x i32], [5 x i16], [5 x i16] }
%struct.crx_data_header_t = type { i32, i32, i32, i32, i32, i32, i32, i32, i32, i32, i32, i32, i32, i32, i32, i64, i32, ptr, i32, i32, i32, ptr, i32, ptr }
%struct.decode = type { [2 x ptr], i32 }
%struct.tiff_ifd_t = type { i32, i32, i32, i32, i32, i32, i32, i32, i32, i32, i32, i32, i32, i32, i32, ptr, i32, ptr, i32, i32, i32, i32, i32, i32, i32, float, i64, i64, i32, [2 x %struct.libraw_dng_color_t], %struct.libraw_dng_levels_t, i32 }
%class.libraw_memmgr = type <{ ptr, i32, [4 x i8] }>
%struct.libraw_callbacks_t = type { ptr, ptr, ptr, ptr, ptr, ptr, ptr, ptr, ptr, ptr, ptr, ptr, ptr, ptr, ptr, ptr, ptr }

; Function Attrs: mustprogress uwtable
define void @_ZN3DHT12make_hv_dirsEv(ptr noundef nonnull align 8 dereferenceable(56) %0) #0 align 2 {
  %2 = alloca ptr, align 8
  %3 = alloca i32, align 4
  %4 = alloca i32, align 4
  %5 = alloca i32, align 4
  %6 = alloca i32, align 4
  store ptr %0, ptr %2, align 8, !tbaa !6
  %7 = load ptr, ptr %2, align 8
  call void @llvm.lifetime.start.p0(i64 4, ptr %3) #11
  store i32 0, ptr %3, align 4, !tbaa !81
  br label %8

8:                                                ; preds = %21, %1
  %9 = load i32, ptr %3, align 4, !tbaa !81
  %10 = getelementptr inbounds nuw %struct.DHT, ptr %7, i32 0, i32 5
  %11 = load ptr, ptr %10, align 8, !tbaa !13
  %12 = getelementptr inbounds nuw %class.LibRaw, ptr %11, i32 0, i32 1
  %13 = getelementptr inbounds nuw %struct.libraw_data_t, ptr %12, i32 0, i32 1
  %14 = getelementptr inbounds nuw %struct.libraw_image_sizes_t, ptr %13, i32 0, i32 6
  %15 = load i16, ptr %14, align 4, !tbaa !18
  %16 = zext i16 %15 to i32
  %17 = icmp slt i32 %9, %16
  br i1 %17, label %19, label %18

18:                                               ; preds = %8
  call void @llvm.lifetime.end.p0(i64 4, ptr %3) #11
  br label %24

19:                                               ; preds = %8
  %20 = load i32, ptr %3, align 4, !tbaa !81
  call void @_ZN3DHT13make_hv_dlineEi(ptr noundef nonnull align 8 dereferenceable(56) %7, i32 noundef %20)
  br label %21

21:                                               ; preds = %19
  %22 = load i32, ptr %3, align 4, !tbaa !81
  %23 = add nsw i32 %22, 1
  store i32 %23, ptr %3, align 4, !tbaa !81
  br label %8, !llvm.loop !107

24:                                               ; preds = %18
  call void @llvm.lifetime.start.p0(i64 4, ptr %4) #11
  store i32 0, ptr %4, align 4, !tbaa !81
  br label %25

25:                                               ; preds = %40, %24
  %26 = load i32, ptr %4, align 4, !tbaa !81
  %27 = getelementptr inbounds nuw %struct.DHT, ptr %7, i32 0, i32 5
  %28 = load ptr, ptr %27, align 8, !tbaa !13
  %29 = getelementptr inbounds nuw %class.LibRaw, ptr %28, i32 0, i32 1
  %30 = getelementptr inbounds nuw %struct.libraw_data_t, ptr %29, i32 0, i32 1
  %31 = getelementptr inbounds nuw %struct.libraw_image_sizes_t, ptr %30, i32 0, i32 6
  %32 = load i16, ptr %31, align 4, !tbaa !18
  %33 = zext i16 %32 to i32
  %34 = icmp slt i32 %26, %33
  br i1 %34, label %36, label %35

35:                                               ; preds = %25
  call void @llvm.lifetime.end.p0(i64 4, ptr %4) #11
  br label %43

36:                                               ; preds = %25
  %37 = load i32, ptr %4, align 4, !tbaa !81
  %38 = load i32, ptr %4, align 4, !tbaa !81
  %39 = and i32 %38, 1
  call void @_ZN3DHT14refine_hv_dirsEii(ptr noundef nonnull align 8 dereferenceable(56) %7, i32 noundef %37, i32 noundef %39)
  br label %40

40:                                               ; preds = %36
  %41 = load i32, ptr %4, align 4, !tbaa !81
  %42 = add nsw i32 %41, 1
  store i32 %42, ptr %4, align 4, !tbaa !81
  br label %25, !llvm.loop !108

43:                                               ; preds = %35
  call void @llvm.lifetime.start.p0(i64 4, ptr %5) #11
  store i32 0, ptr %5, align 4, !tbaa !81
  br label %44

44:                                               ; preds = %60, %43
  %45 = load i32, ptr %5, align 4, !tbaa !81
  %46 = getelementptr inbounds nuw %struct.DHT, ptr %7, i32 0, i32 5
  %47 = load ptr, ptr %46, align 8, !tbaa !13
  %48 = getelementptr inbounds nuw %class.LibRaw, ptr %47, i32 0, i32 1
  %49 = getelementptr inbounds nuw %struct.libraw_data_t, ptr %48, i32 0, i32 1
  %50 = getelementptr inbounds nuw %struct.libraw_image_sizes_t, ptr %49, i32 0, i32 6
  %51 = load i16, ptr %50, align 4, !tbaa !18
  %52 = zext i16 %51 to i32
  %53 = icmp slt i32 %45, %52
  br i1 %53, label %55, label %54

54:                                               ; preds = %44
  call void @llvm.lifetime.end.p0(i64 4, ptr %5) #11
  br label %63

55:                                               ; preds = %44
  %56 = load i32, ptr %5, align 4, !tbaa !81
  %57 = load i32, ptr %5, align 4, !tbaa !81
  %58 = and i32 %57, 1
  %59 = xor i32 %58, 1
  call void @_ZN3DHT14refine_hv_dirsEii(ptr noundef nonnull align 8 dereferenceable(56) %7, i32 noundef %56, i32 noundef %59)
  br label %60

60:                                               ; preds = %55
  %61 = load i32, ptr %5, align 4, !tbaa !81
  %62 = add nsw i32 %61, 1
  store i32 %62, ptr %5, align 4, !tbaa !81
  br label %44, !llvm.loop !109

63:                                               ; preds = %54
  call void @llvm.lifetime.start.p0(i64 4, ptr %6) #11
  store i32 0, ptr %6, align 4, !tbaa !81
  br label %64

64:                                               ; preds = %77, %63
  %65 = load i32, ptr %6, align 4, !tbaa !81
  %66 = getelementptr inbounds nuw %struct.DHT, ptr %7, i32 0, i32 5
  %67 = load ptr, ptr %66, align 8, !tbaa !13
  %68 = getelementptr inbounds nuw %class.LibRaw, ptr %67, i32 0, i32 1
  %69 = getelementptr inbounds nuw %struct.libraw_data_t, ptr %68, i32 0, i32 1
  %70 = getelementptr inbounds nuw %struct.libraw_image_sizes_t, ptr %69, i32 0, i32 6
  %71 = load i16, ptr %70, align 4, !tbaa !18
  %72 = zext i16 %71 to i32
  %73 = icmp slt i32 %65, %72
  br i1 %73, label %75, label %74

74:                                               ; preds = %64
  call void @llvm.lifetime.end.p0(i64 4, ptr %6) #11
  br label %80

75:                                               ; preds = %64
  %76 = load i32, ptr %6, align 4, !tbaa !81
  call void @_ZN3DHT15refine_ihv_dirsEi(ptr noundef nonnull align 8 dereferenceable(56) %7, i32 noundef %76)
  br label %77

77:                                               ; preds = %75
  %78 = load i32, ptr %6, align 4, !tbaa !81
  %79 = add nsw i32 %78, 1
  store i32 %79, ptr %6, align 4, !tbaa !81
  br label %64, !llvm.loop !110

80:                                               ; preds = %74
  ret void
}