; Function Attrs: mustprogress uwtable
define void @_ZN3DHT12make_hv_dirsEv(ptr noundef nonnull align 8 dereferenceable(56) %0) local_unnamed_addr #0 align 2 {
  %2 = getelementptr inbounds nuw i8, ptr %0, i64 40
  %3 = load ptr, ptr %2, align 8, !tbaa !87
  %4 = getelementptr inbounds nuw i8, ptr %3, i64 28
  %5 = load i16, ptr %4, align 4, !tbaa !11
  %.not = icmp eq i16 %5, 0
  br i1 %.not, label %._crit_edge, label %.lr.ph

.preheader18:                                     ; preds = %.lr.ph
  %6 = icmp eq i16 %10, 0
  br i1 %6, label %._crit_edge, label %.lr.ph21

.lr.ph:                                           ; preds = %1, %.lr.ph
  %.01619 = phi i32 [ %7, %.lr.ph ], [ 0, %1 ]
  tail call void @_ZN3DHT13make_hv_dlineEi(ptr noundef nonnull align 8 dereferenceable(56) %0, i32 noundef %.01619)
  %7 = add nuw nsw i32 %.01619, 1
  %8 = load ptr, ptr %2, align 8, !tbaa !87
  %9 = getelementptr inbounds nuw i8, ptr %8, i64 28
  %10 = load i16, ptr %9, align 4, !tbaa !11
  %11 = zext i16 %10 to i32
  %12 = icmp samesign ult i32 %7, %11
  br i1 %12, label %.lr.ph, label %.preheader18, !llvm.loop !108

.preheader17:                                     ; preds = %.lr.ph21
  %13 = icmp eq i16 %18, 0
  br i1 %13, label %._crit_edge, label %.lr.ph23

.lr.ph21:                                         ; preds = %.preheader18, %.lr.ph21
  %.01520 = phi i32 [ %15, %.lr.ph21 ], [ 0, %.preheader18 ]
  %14 = and i32 %.01520, 1
  tail call void @_ZN3DHT14refine_hv_dirsEii(ptr noundef nonnull align 8 dereferenceable(56) %0, i32 noundef %.01520, i32 noundef %14)
  %15 = add nuw nsw i32 %.01520, 1
  %16 = load ptr, ptr %2, align 8, !tbaa !87
  %17 = getelementptr inbounds nuw i8, ptr %16, i64 28
  %18 = load i16, ptr %17, align 4, !tbaa !11
  %19 = zext i16 %18 to i32
  %20 = icmp samesign ult i32 %15, %19
  br i1 %20, label %.lr.ph21, label %.preheader17, !llvm.loop !109

.preheader:                                       ; preds = %.lr.ph23
  %21 = icmp eq i16 %27, 0
  br i1 %21, label %._crit_edge, label %.lr.ph25

.lr.ph23:                                         ; preds = %.preheader17, %.lr.ph23
  %.01422 = phi i32 [ %24, %.lr.ph23 ], [ 0, %.preheader17 ]
  %22 = and i32 %.01422, 1
  %23 = xor i32 %22, 1
  tail call void @_ZN3DHT14refine_hv_dirsEii(ptr noundef nonnull align 8 dereferenceable(56) %0, i32 noundef %.01422, i32 noundef %23)
  %24 = add nuw nsw i32 %.01422, 1
  %25 = load ptr, ptr %2, align 8, !tbaa !87
  %26 = getelementptr inbounds nuw i8, ptr %25, i64 28
  %27 = load i16, ptr %26, align 4, !tbaa !11
  %28 = zext i16 %27 to i32
  %29 = icmp samesign ult i32 %24, %28
  br i1 %29, label %.lr.ph23, label %.preheader, !llvm.loop !110

._crit_edge:                                      ; preds = %.lr.ph25, %1, %.preheader18, %.preheader17, %.preheader
  ret void

.lr.ph25:                                         ; preds = %.preheader, %.lr.ph25
  %.024 = phi i32 [ %30, %.lr.ph25 ], [ 0, %.preheader ]
  tail call void @_ZN3DHT15refine_ihv_dirsEi(ptr noundef nonnull align 8 dereferenceable(56) %0, i32 noundef %.024)
  %30 = add nuw nsw i32 %.024, 1
  %31 = load ptr, ptr %2, align 8, !tbaa !87
  %32 = getelementptr inbounds nuw i8, ptr %31, i64 28
  %33 = load i16, ptr %32, align 4, !tbaa !11
  %34 = zext i16 %33 to i32
  %35 = icmp samesign ult i32 %30, %34
  br i1 %35, label %.lr.ph25, label %._crit_edge, !llvm.loop !111
}